target datalayout = "e-m:e-p270:32:32-p271:32:32-p272:64:64-i64:64-i128:128-f80:128-n8:16:32:64-S128"
target triple = "x86_64-pc-linux-gnu"

%struct.jit_State = type { %struct.GCtrace, ptr, ptr, ptr, ptr, ptr, ptr, i32, i32, i32, i8, i8, %struct.IRType1, i8, %struct.FoldState, ptr, i32, i32, i32, i32, i32, i32, i32, [1 x i32], [5 x %union.TValue], [3 x %union.TValue], ptr, i32, i32, i32, i32, ptr, ptr, i32, i32, i8, ptr, i32, i32, i16, [101 x i16], [258 x i32], [15 x i32], [16 x ptr], [64 x %struct.HotPenalty], i32, [16 x %struct.BPropEntry], i32, %struct.ScEvEntry, ptr, i32, i32, i32, ptr, i32, i32, ptr, ptr, ptr, i64, i64, %union.TValue, ptr, i32, i32 }
%struct.GCtrace = type { %struct.GCRef, i8, i8, i16, i32, i32, %struct.GCRef, ptr, i32, i32, ptr, ptr, %struct.GCRef, %struct.MRef, i32, i32, ptr, i32, i16, i16, i16, i16, i16, i16, i16, i8, i8, i8, i8 }
%struct.GCRef = type { i64 }
%struct.MRef = type { i64 }
%struct.IRType1 = type { i8 }
%struct.FoldState = type { %union.IRIns, [2 x %union.IRIns], [2 x %union.IRIns] }
%union.IRIns = type { %struct.GCRef }
%struct.HotPenalty = type { %struct.MRef, i16, i16 }
%struct.BPropEntry = type { i16, i16, i32 }
%struct.ScEvEntry = type { %struct.MRef, i16, i16, i16, i16, %struct.IRType1, i8 }
%union.TValue = type { i64 }
%struct.anon = type { i16, i16, i16, i16 }

; Function Attrs: alwaysinline nounwind uwtable
define internal void @lj_ir_set_(ptr noundef %0, i16 noundef zeroext %1, i16 noundef zeroext %2, i16 noundef zeroext %3) #2 {
  %5 = alloca ptr, align 8
  %6 = alloca i16, align 2
  %7 = alloca i16, align 2
  %8 = alloca i16, align 2
  store ptr %0, ptr %5, align 8, !tbaa !4
  store i16 %1, ptr %6, align 2, !tbaa !44
  store i16 %2, ptr %7, align 2, !tbaa !44
  store i16 %3, ptr %8, align 2, !tbaa !44
  %9 = load i16, ptr %6, align 2, !tbaa !44
  %10 = load ptr, ptr %5, align 8, !tbaa !4
  %11 = getelementptr inbounds nuw %struct.jit_State, ptr %10, i32 0, i32 14
  %12 = getelementptr inbounds nuw %struct.FoldState, ptr %11, i32 0, i32 0
  %13 = getelementptr inbounds nuw %struct.anon, ptr %12, i32 0, i32 2
  store i16 %9, ptr %13, align 4, !tbaa !33
  %14 = load i16, ptr %7, align 2, !tbaa !44
  %15 = load ptr, ptr %5, align 8, !tbaa !4
  %16 = getelementptr inbounds nuw %struct.jit_State, ptr %15, i32 0, i32 14
  %17 = getelementptr inbounds nuw %struct.FoldState, ptr %16, i32 0, i32 0
  %18 = getelementptr inbounds nuw %struct.anon, ptr %17, i32 0, i32 0
  store i16 %14, ptr %18, align 8, !tbaa !33
  %19 = load i16, ptr %8, align 2, !tbaa !44
  %20 = load ptr, ptr %5, align 8, !tbaa !4
  %21 = getelementptr inbounds nuw %struct.jit_State, ptr %20, i32 0, i32 14
  %22 = getelementptr inbounds nuw %struct.FoldState, ptr %21, i32 0, i32 0
  %23 = getelementptr inbounds nuw %struct.anon, ptr %22, i32 0, i32 1
  store i16 %19, ptr %23, align 2, !tbaa !33
  ret void
}

; Function Attrs: nounwind uwtable
define internal i32 @numisint(double noundef %0) #0 {
  %2 = alloca double, align 8
  store double %0, ptr %2, align 8, !tbaa !41
  %3 = load double, ptr %2, align 8, !tbaa !41
  %4 = load double, ptr %2, align 8, !tbaa !41
  %5 = fptosi double %4 to i32
  %6 = sitofp i32 %5 to double
  %7 = fcmp oeq double %3, %6
  %8 = zext i1 %7 to i32
  ret i32 %8
}

; Function Attrs: alwaysinline nounwind uwtable
define internal double @numberVnum(ptr noundef %0) #2 {
  %2 = alloca ptr, align 8
  store ptr %0, ptr %2, align 8, !tbaa !53
  %3 = load ptr, ptr %2, align 8, !tbaa !53
  %4 = load double, ptr %3, align 8, !tbaa !33
  ret double %4
}

; Function Attrs: nounwind uwtable
define internal i32 @conv_str_tonum(ptr noundef %0, i32 noundef %1, ptr noundef %2) #0 {
  %4 = alloca ptr, align 8
  %5 = alloca i32, align 4
  %6 = alloca ptr, align 8
  store ptr %0, ptr %4, align 8, !tbaa !4
  store i32 %1, ptr %5, align 4, !tbaa !38
  store ptr %2, ptr %6, align 8, !tbaa !53
  %7 = load i32, ptr %5, align 4, !tbaa !38
  %8 = and i32 %7, 520093696
  %9 = icmp eq i32 %8, 67108864
  br i1 %9, label %10, label %27

10:                                               ; preds = %3
  %11 = load ptr, ptr %4, align 8, !tbaa !4
  %12 = load i32, ptr %5, align 4, !tbaa !38
  %13 = trunc i32 %12 to i16
  call void @lj_ir_set_(ptr noundef %11, i16 noundef zeroext 24206, i16 noundef zeroext %13, i16 noundef zeroext 0)
  %14 = load ptr, ptr %4, align 8, !tbaa !4
  %15 = call i32 @lj_opt_fold(ptr noundef %14)
  store i32 %15, ptr %5, align 4, !tbaa !38
  %16 = load ptr, ptr %6, align 8, !tbaa !53
  %17 = getelementptr inbounds nuw %struct.GCRef, ptr %16, i32 0, i32 0
  %18 = load i64, ptr %17, align 8, !tbaa !33
  %19 = and i64 %18, 140737488355327
  %20 = inttoptr i64 %19 to ptr
  %21 = load ptr, ptr %6, align 8, !tbaa !53
  %22 = call i32 @lj_strscan_num(ptr noundef %20, ptr noundef %21)
  %23 = icmp ne i32 %22, 0
  br i1 %23, label %26, label %24

24:                                               ; preds = %10
  %25 = load ptr, ptr %4, align 8, !tbaa !4
  call void @lj_trace_err(ptr noundef %25, i32 noundef 11) #6
  unreachable

26:                                               ; preds = %10
  br label %27

27:                                               ; preds = %26, %3
  %28 = load i32, ptr %5, align 4, !tbaa !38
  ret i32 %28
}

; Function Attrs: nounwind uwtable
define hidden i32 @lj_opt_narrow_arith(ptr noundef %0, i32 noundef %1, i32 noundef %2, ptr noundef %3, ptr noundef %4, i32 noundef %5) #0 {
  %7 = alloca i32, align 4
  %8 = alloca ptr, align 8
  %9 = alloca i32, align 4
  %10 = alloca i32, align 4
  %11 = alloca ptr, align 8
  %12 = alloca ptr, align 8
  %13 = alloca i32, align 4
  store ptr %0, ptr %8, align 8, !tbaa !4
  store i32 %1, ptr %9, align 4, !tbaa !38
  store i32 %2, ptr %10, align 4, !tbaa !38
  store ptr %3, ptr %11, align 8, !tbaa !53
  store ptr %4, ptr %12, align 8, !tbaa !53
  store i32 %5, ptr %13, align 4, !tbaa !38
  %14 = load ptr, ptr %8, align 8, !tbaa !4
  %15 = load i32, ptr %9, align 4, !tbaa !38
  %16 = load ptr, ptr %11, align 8, !tbaa !53
  %17 = call i32 @conv_str_tonum(ptr noundef %14, i32 noundef %15, ptr noundef %16)
  store i32 %17, ptr %9, align 4, !tbaa !38
  %18 = load ptr, ptr %8, align 8, !tbaa !4
  %19 = load i32, ptr %10, align 4, !tbaa !38
  %20 = load ptr, ptr %12, align 8, !tbaa !53
  %21 = call i32 @conv_str_tonum(ptr noundef %18, i32 noundef %19, ptr noundef %20)
  store i32 %21, ptr %10, align 4, !tbaa !38
  %22 = load i32, ptr %13, align 4, !tbaa !38
  %23 = icmp uge i32 %22, 41
  br i1 %23, label %24, label %63

24:                                               ; preds = %6
  %25 = load i32, ptr %13, align 4, !tbaa !38
  %26 = icmp ule i32 %25, 42
  br i1 %26, label %27, label %63

27:                                               ; preds = %24
  %28 = load i32, ptr %9, align 4, !tbaa !38
  %29 = lshr i32 %28, 24
  %30 = and i32 %29, 31
  %31 = sub i32 %30, 15
  %32 = icmp ule i32 %31, 4
  br i1 %32, label %33, label %63

33:                                               ; preds = %27
  %34 = load i32, ptr %10, align 4, !tbaa !38
  %35 = lshr i32 %34, 24
  %36 = and i32 %35, 31
  %37 = sub i32 %36, 15
  %38 = icmp ule i32 %37, 4
  br i1 %38, label %39, label %63

39:                                               ; preds = %33
  %40 = load ptr, ptr %11, align 8, !tbaa !53
  %41 = call double @numberVnum(ptr noundef %40)
  %42 = load ptr, ptr %12, align 8, !tbaa !53
  %43 = call double @numberVnum(ptr noundef %42)
  %44 = load i32, ptr %13, align 4, !tbaa !38
  %45 = sub nsw i32 %44, 41
  %46 = call double @lj_vm_foldarith(double noundef %41, double noundef %43, i32 noundef %45)
  %47 = call i32 @numisint(double noundef %46)
  %48 = icmp ne i32 %47, 0
  br i1 %48, label %49, label %63

49:                                               ; preds = %39
  %50 = load ptr, ptr %8, align 8, !tbaa !4
  %51 = load i32, ptr %13, align 4, !tbaa !38
  %52 = sub nsw i32 %51, 41
  %53 = add nsw i32 %52, 53
  %54 = shl i32 %53, 8
  %55 = or i32 %54, 147
  %56 = trunc i32 %55 to i16
  %57 = load i32, ptr %9, align 4, !tbaa !38
  %58 = trunc i32 %57 to i16
  %59 = load i32, ptr %10, align 4, !tbaa !38
  %60 = trunc i32 %59 to i16
  call void @lj_ir_set_(ptr noundef %50, i16 noundef zeroext %56, i16 noundef zeroext %58, i16 noundef zeroext %60)
  %61 = load ptr, ptr %8, align 8, !tbaa !4
  %62 = call i32 @lj_opt_fold(ptr noundef %61)
  store i32 %62, ptr %7, align 4
  br label %95

63:                                               ; preds = %39, %33, %27, %24, %6
  %64 = load i32, ptr %9, align 4, !tbaa !38
  %65 = and i32 %64, 520093696
  %66 = icmp eq i32 %65, 234881024
  br i1 %66, label %73, label %67

67:                                               ; preds = %63
  %68 = load ptr, ptr %8, align 8, !tbaa !4
  %69 = load i32, ptr %9, align 4, !tbaa !38
  %70 = trunc i32 %69 to i16
  call void @lj_ir_set_(ptr noundef %68, i16 noundef zeroext 23310, i16 noundef zeroext %70, i16 noundef zeroext 467)
  %71 = load ptr, ptr %8, align 8, !tbaa !4
  %72 = call i32 @lj_opt_fold(ptr noundef %71)
  store i32 %72, ptr %9, align 4, !tbaa !38
  br label %73

73:                                               ; preds = %67, %63
  %74 = load i32, ptr %10, align 4, !tbaa !38
  %75 = and i32 %74, 520093696
  %76 = icmp eq i32 %75, 234881024
  br i1 %76, label %83, label %77

77:                                               ; preds = %73
  %78 = load ptr, ptr %8, align 8, !tbaa !4
  %79 = load i32, ptr %10, align 4, !tbaa !38
  %80 = trunc i32 %79 to i16
  call void @lj_ir_set_(ptr noundef %78, i16 noundef zeroext 23310, i16 noundef zeroext %80, i16 noundef zeroext 467)
  %81 = load ptr, ptr %8, align 8, !tbaa !4
  %82 = call i32 @lj_opt_fold(ptr noundef %81)
  store i32 %82, ptr %10, align 4, !tbaa !38
  br label %83

83:                                               ; preds = %77, %73
  %84 = load ptr, ptr %8, align 8, !tbaa !4
  %85 = load i32, ptr %13, align 4, !tbaa !38
  %86 = shl i32 %85, 8
  %87 = or i32 %86, 14
  %88 = trunc i32 %87 to i16
  %89 = load i32, ptr %9, align 4, !tbaa !38
  %90 = trunc i32 %89 to i16
  %91 = load i32, ptr %10, align 4, !tbaa !38
  %92 = trunc i32 %91 to i16
  call void @lj_ir_set_(ptr noundef %84, i16 noundef zeroext %88, i16 noundef zeroext %90, i16 noundef zeroext %92)
  %93 = load ptr, ptr %8, align 8, !tbaa !4
  %94 = call i32 @lj_opt_fold(ptr noundef %93)
  store i32 %94, ptr %7, align 4
  br label %95

95:                                               ; preds = %83, %49
  %96 = load i32, ptr %7, align 4
  ret i32 %96
}