; Function Attrs: nounwind uwtable
define hidden i32 @lj_opt_narrow_arith(ptr noundef initializes((184, 190)) %0, i32 noundef %1, i32 noundef %2, ptr noundef %3, ptr noundef %4, i32 noundef %5) local_unnamed_addr #0 {
  %7 = and i32 %1, 520093696
  %8 = icmp eq i32 %7, 67108864
  br i1 %8, label %9, label %conv_str_tonum.exit

9:                                                ; preds = %6
  %10 = trunc i32 %1 to i16
  %11 = getelementptr inbounds nuw i8, ptr %0, i64 184
  %12 = getelementptr inbounds nuw i8, ptr %0, i64 188
  store i16 24206, ptr %12, align 4, !tbaa !32
  store i16 %10, ptr %11, align 8, !tbaa !32
  %13 = getelementptr inbounds nuw i8, ptr %0, i64 186
  store i16 0, ptr %13, align 2, !tbaa !32
  %14 = tail call i32 @lj_opt_fold(ptr noundef %0) #6
  %15 = load i64, ptr %3, align 8, !tbaa !32
  %16 = and i64 %15, 140737488355327
  %17 = inttoptr i64 %16 to ptr
  %18 = tail call i32 @lj_strscan_num(ptr noundef %17, ptr noundef nonnull %3) #6
  %.not.i = icmp eq i32 %18, 0
  br i1 %.not.i, label %19, label %conv_str_tonum.exit

19:                                               ; preds = %9
  tail call void @lj_trace_err(ptr noundef nonnull %0, i32 noundef 11) #7
  unreachable

conv_str_tonum.exit:                              ; preds = %6, %9
  %.0.i = phi i32 [ %14, %9 ], [ %1, %6 ]
  %20 = and i32 %2, 520093696
  %21 = icmp eq i32 %20, 67108864
  br i1 %21, label %22, label %conv_str_tonum.exit38

22:                                               ; preds = %conv_str_tonum.exit
  %23 = trunc i32 %2 to i16
  %24 = getelementptr inbounds nuw i8, ptr %0, i64 184
  %25 = getelementptr inbounds nuw i8, ptr %0, i64 188
  store i16 24206, ptr %25, align 4, !tbaa !32
  store i16 %23, ptr %24, align 8, !tbaa !32
  %26 = getelementptr inbounds nuw i8, ptr %0, i64 186
  store i16 0, ptr %26, align 2, !tbaa !32
  %27 = tail call i32 @lj_opt_fold(ptr noundef %0) #6
  %28 = load i64, ptr %4, align 8, !tbaa !32
  %29 = and i64 %28, 140737488355327
  %30 = inttoptr i64 %29 to ptr
  %31 = tail call i32 @lj_strscan_num(ptr noundef %30, ptr noundef nonnull %4) #6
  %.not.i37 = icmp eq i32 %31, 0
  br i1 %.not.i37, label %32, label %conv_str_tonum.exit38

32:                                               ; preds = %22
  tail call void @lj_trace_err(ptr noundef nonnull %0, i32 noundef 11) #7
  unreachable

conv_str_tonum.exit38:                            ; preds = %conv_str_tonum.exit, %22
  %.0.i36 = phi i32 [ %27, %22 ], [ %2, %conv_str_tonum.exit ]
  %33 = add i32 %5, -41
  %or.cond = icmp ult i32 %33, 2
  br i1 %or.cond, label %34, label %54

34:                                               ; preds = %conv_str_tonum.exit38
  %35 = lshr i32 %.0.i, 24
  %36 = and i32 %35, 31
  %37 = add nsw i32 %36, -15
  %38 = icmp ult i32 %37, 5
  br i1 %38, label %39, label %54

39:                                               ; preds = %34
  %40 = lshr i32 %.0.i36, 24
  %41 = and i32 %40, 31
  %42 = add nsw i32 %41, -15
  %43 = icmp ult i32 %42, 5
  br i1 %43, label %44, label %54

44:                                               ; preds = %39
  %45 = load double, ptr %3, align 8, !tbaa !32
  %46 = load double, ptr %4, align 8, !tbaa !32
  %47 = tail call double @lj_vm_foldarith(double noundef %45, double noundef %46, i32 noundef %33) #6
  %48 = fptosi double %47 to i32
  %49 = sitofp i32 %48 to double
  %50 = fcmp une double %47, %49
  br i1 %50, label %54, label %51

51:                                               ; preds = %44
  %.tr35 = trunc nuw i32 %5 to i16
  %52 = shl nuw nsw i16 %.tr35, 8
  %53 = add nuw nsw i16 %52, 3219
  br label %75

54:                                               ; preds = %44, %39, %34, %conv_str_tonum.exit38
  %55 = and i32 %.0.i, 520093696
  %56 = icmp eq i32 %55, 234881024
  br i1 %56, label %63, label %57

57:                                               ; preds = %54
  %58 = trunc i32 %.0.i to i16
  %59 = getelementptr inbounds nuw i8, ptr %0, i64 184
  %60 = getelementptr inbounds nuw i8, ptr %0, i64 188
  store i16 23310, ptr %60, align 4, !tbaa !32
  store i16 %58, ptr %59, align 8, !tbaa !32
  %61 = getelementptr inbounds nuw i8, ptr %0, i64 186
  store i16 467, ptr %61, align 2, !tbaa !32
  %62 = tail call i32 @lj_opt_fold(ptr noundef %0) #6
  br label %63

63:                                               ; preds = %57, %54
  %.032 = phi i32 [ %.0.i, %54 ], [ %62, %57 ]
  %64 = and i32 %.0.i36, 520093696
  %65 = icmp eq i32 %64, 234881024
  br i1 %65, label %72, label %66

66:                                               ; preds = %63
  %67 = trunc i32 %.0.i36 to i16
  %68 = getelementptr inbounds nuw i8, ptr %0, i64 184
  %69 = getelementptr inbounds nuw i8, ptr %0, i64 188
  store i16 23310, ptr %69, align 4, !tbaa !32
  store i16 %67, ptr %68, align 8, !tbaa !32
  %70 = getelementptr inbounds nuw i8, ptr %0, i64 186
  store i16 467, ptr %70, align 2, !tbaa !32
  %71 = tail call i32 @lj_opt_fold(ptr noundef %0) #6
  br label %72

72:                                               ; preds = %66, %63
  %.033 = phi i32 [ %.0.i36, %63 ], [ %71, %66 ]
  %.tr = trunc i32 %5 to i16
  %73 = shl i16 %.tr, 8
  %74 = or disjoint i16 %73, 14
  br label %75

75:                                               ; preds = %72, %51
  %.032.sink = phi i32 [ %.032, %72 ], [ %.0.i, %51 ]
  %.033.sink = phi i32 [ %.033, %72 ], [ %.0.i36, %51 ]
  %.sink42 = phi i16 [ %74, %72 ], [ %53, %51 ]
  %76 = trunc i32 %.032.sink to i16
  %77 = trunc i32 %.033.sink to i16
  %78 = getelementptr inbounds nuw i8, ptr %0, i64 184
  %79 = getelementptr inbounds nuw i8, ptr %0, i64 188
  store i16 %.sink42, ptr %79, align 4, !tbaa !32
  store i16 %76, ptr %78, align 8, !tbaa !32
  %80 = getelementptr inbounds nuw i8, ptr %0, i64 186
  store i16 %77, ptr %80, align 2, !tbaa !32
  %81 = tail call i32 @lj_opt_fold(ptr noundef %0) #6
  ret i32 %81
}